EXPORTS
	_ZN12RSharedQueue3TopEv @ 1 NONAME
	_ZN12RSharedQueue7ConnectEv @ 2 NONAME
	_ZN12RSharedQueue7DequeueEv @ 3 NONAME
	_ZN12RSharedQueue7DoEmptyEv @ 4 NONAME
	_ZN12RSharedQueue7EnqueueE10TCmdStructRK6TDesC8 @ 5 NONAME
	_ZN12RSharedQueue7EnqueueE8TCmdTypeiiRK6TDesC8 @ 6 NONAME
	_ZN12RSharedQueue7IsEmptyEv @ 7 NONAME
	_ZN12RSharedQueue7LockTopEv @ 8 NONAME
	_ZN12RSharedQueue9TopParamLEv @ 9 NONAME
	_ZN22CAbstractQueueEndPoint13CanReceiveCmdEv @ 10 NONAME
	_ZN22CAbstractQueueEndPoint13DoEmptyQueueLEv @ 11 NONAME
	_ZN22CAbstractQueueEndPoint13SetReceiveCmdEi @ 12 NONAME
	_ZN22CAbstractQueueEndPoint14BaseConstructLERK6TDesC8 @ 13 NONAME
	_ZN22CAbstractQueueEndPoint16PropertyChangedLE4TUidji @ 14 NONAME
	_ZN22CAbstractQueueEndPoint17SubmitNewCommandLE10TCmdStruct @ 15 NONAME
	_ZN22CAbstractQueueEndPoint24MarkCommandAsDispatchedLEv @ 16 NONAME
	_ZN22CAbstractQueueEndPoint25ShouldReceiveThisCommandLE10TCmdStruct @ 17 NONAME
	_ZN22CAbstractQueueEndPoint4TypeEv @ 18 NONAME
	_ZN22CAbstractQueueEndPointC1Ei @ 19 NONAME
	_ZN22CAbstractQueueEndPointC2Ei @ 20 NONAME
	_ZN22CAbstractQueueEndPointD0Ev @ 21 NONAME
	_ZN22CAbstractQueueEndPointD1Ev @ 22 NONAME
	_ZN22CAbstractQueueEndPointD2Ev @ 23 NONAME
	_ZTI15CPubSubObserver @ 24 NONAME
	_ZTI22CAbstractQueueEndPoint @ 25 NONAME
	_ZTV15CPubSubObserver @ 26 NONAME
	_ZTV22CAbstractQueueEndPoint @ 27 NONAME
	_ZThn4_N22CAbstractQueueEndPoint16PropertyChangedLE4TUidji @ 28 NONAME

